target datalayout = "e-m:e-p270:32:32-p271:32:32-p272:64:64-i64:64-i128:128-f80:128-n8:16:32:64-S128"
target triple = "x86_64-pc-linux-gnu"

%struct.Wla_Man_t_ = type { ptr, ptr, ptr, ptr, ptr, ptr, ptr, ptr, ptr, ptr, i32, i32, i32, i32, i32, i32, i64, i64, i64 }
%struct.Wlc_Par_t_ = type { i32, i32, i32, i32, i32, i32, i32, i32, i32, i32, i32, i32, i32, i32, i32, i32, i32, i32, i32, i32, i32, i32, i32, ptr }
%struct.timespec = type { i64, i64 }

@.str.10 = private unnamed_addr constant [5 x i8] c"Time\00", align 1
@.str.15 = private unnamed_addr constant [16 x i8] c"\0AIteration %d:\0A\00", align 1
@.str.16 = private unnamed_addr constant [2 x i8] c"\0A\00", align 1
@.str.17 = private unnamed_addr constant [13 x i8] c"Abstraction \00", align 1
@.str.18 = private unnamed_addr constant [23 x i8] c"resulted in a real CEX\00", align 1
@.str.19 = private unnamed_addr constant [23 x i8] c"is successfully proved\00", align 1
@.str.20 = private unnamed_addr constant [10 x i8] c"timed out\00", align 1
@.str.21 = private unnamed_addr constant [23 x i8] c" after %d iterations. \00", align 1
@.str.22 = private unnamed_addr constant [25 x i8] c"PDRA reused %d clauses.\0A\00", align 1
@.str.23 = private unnamed_addr constant [5 x i8] c"%s =\00", align 1
@.str.24 = private unnamed_addr constant [14 x i8] c"PDR          \00", align 1
@.str.25 = private unnamed_addr constant [22 x i8] c"%9.2f sec (%6.2f %%)\0A\00", align 1
@.str.26 = private unnamed_addr constant [14 x i8] c"CEX Refine   \00", align 1
@.str.27 = private unnamed_addr constant [14 x i8] c"Proof Refine \00", align 1
@.str.28 = private unnamed_addr constant [14 x i8] c"Misc.        \00", align 1
@.str.29 = private unnamed_addr constant [14 x i8] c"Total        \00", align 1
@.str.46 = private unnamed_addr constant [11 x i8] c"%9.2f sec\0A\00", align 1

; Function Attrs: inlinehint nounwind uwtable
define internal void @Abc_PrintTime(i32 noundef %0, ptr noundef %1, i64 noundef %2) #2 {
  %4 = alloca i32, align 4
  %5 = alloca ptr, align 8
  %6 = alloca i64, align 8
  store i32 %0, ptr %4, align 4, !tbaa !15
  store ptr %1, ptr %5, align 8, !tbaa !23
  store i64 %2, ptr %6, align 8, !tbaa !89
  %7 = load ptr, ptr %5, align 8, !tbaa !23
  call void (i32, ptr, ...) @Abc_Print(i32 noundef 1, ptr noundef @.str.23, ptr noundef %7)
  %8 = load i64, ptr %6, align 8, !tbaa !89
  %9 = sitofp i64 %8 to double
  %10 = fmul double 1.000000e+00, %9
  %11 = fdiv double %10, 1.000000e+06
  call void (i32, ptr, ...) @Abc_Print(i32 noundef 1, ptr noundef @.str.46, double noundef %11)
  ret void
}

; Function Attrs: inlinehint nounwind uwtable
define internal i64 @Abc_Clock() #2 {
  %1 = alloca i64, align 8
  %2 = alloca %struct.timespec, align 8
  %3 = alloca i32, align 4
  %4 = alloca i64, align 8
  call void @llvm.lifetime.start.p0(i64 16, ptr %2) #13
  %5 = call i32 @clock_gettime(i32 noundef 1, ptr noundef %2) #13
  %6 = icmp slt i32 %5, 0
  br i1 %6, label %7, label %8

7:                                                ; preds = %0
  store i64 -1, ptr %1, align 8
  store i32 1, ptr %3, align 4
  br label %19

8:                                                ; preds = %0
  call void @llvm.lifetime.start.p0(i64 8, ptr %4) #13
  %9 = getelementptr inbounds nuw %struct.timespec, ptr %2, i32 0, i32 0
  %10 = load i64, ptr %9, align 8, !tbaa !289
  %11 = mul nsw i64 %10, 1000000
  store i64 %11, ptr %4, align 8, !tbaa !89
  %12 = getelementptr inbounds nuw %struct.timespec, ptr %2, i32 0, i32 1
  %13 = load i64, ptr %12, align 8, !tbaa !291
  %14 = mul nsw i64 %13, 1000000
  %15 = sdiv i64 %14, 1000000000
  %16 = load i64, ptr %4, align 8, !tbaa !89
  %17 = add nsw i64 %16, %15
  store i64 %17, ptr %4, align 8, !tbaa !89
  %18 = load i64, ptr %4, align 8, !tbaa !89
  store i64 %18, ptr %1, align 8
  store i32 1, ptr %3, align 4
  call void @llvm.lifetime.end.p0(i64 8, ptr %4) #13
  br label %19

19:                                               ; preds = %8, %7
  call void @llvm.lifetime.end.p0(i64 16, ptr %2) #13
  %20 = load i64, ptr %1, align 8
  ret i64 %20
}

; Function Attrs: nounwind uwtable
define i32 @Wla_ManSolve(ptr noundef %0, ptr noundef %1) #0 {
  %3 = alloca ptr, align 8
  %4 = alloca ptr, align 8
  %5 = alloca i64, align 8
  %6 = alloca i64, align 8
  %7 = alloca ptr, align 8
  %8 = alloca ptr, align 8
  %9 = alloca i32, align 4
  store ptr %0, ptr %3, align 8, !tbaa !74
  store ptr %1, ptr %4, align 8, !tbaa !88
  call void @llvm.lifetime.start.p0(i64 8, ptr %5) #13
  %10 = call i64 @Abc_Clock()
  store i64 %10, ptr %5, align 8, !tbaa !89
  call void @llvm.lifetime.start.p0(i64 8, ptr %6) #13
  call void @llvm.lifetime.start.p0(i64 8, ptr %7) #13
  store ptr null, ptr %7, align 8, !tbaa !13
  call void @llvm.lifetime.start.p0(i64 8, ptr %8) #13
  store ptr null, ptr %8, align 8, !tbaa !113
  call void @llvm.lifetime.start.p0(i64 4, ptr %9) #13
  store i32 -1, ptr %9, align 4, !tbaa !15
  %11 = load ptr, ptr %3, align 8, !tbaa !74
  %12 = getelementptr inbounds nuw %struct.Wla_Man_t_, ptr %11, i32 0, i32 12
  store i32 1, ptr %12, align 8, !tbaa !214
  br label %13

13:                                               ; preds = %61, %2
  %14 = load ptr, ptr %3, align 8, !tbaa !74
  %15 = getelementptr inbounds nuw %struct.Wla_Man_t_, ptr %14, i32 0, i32 12
  %16 = load i32, ptr %15, align 8, !tbaa !214
  %17 = load ptr, ptr %4, align 8, !tbaa !88
  %18 = getelementptr inbounds nuw %struct.Wlc_Par_t_, ptr %17, i32 0, i32 4
  %19 = load i32, ptr %18, align 8, !tbaa !217
  %20 = icmp slt i32 %16, %19
  br i1 %20, label %21, label %66

21:                                               ; preds = %13
  %22 = load ptr, ptr %4, align 8, !tbaa !88
  %23 = getelementptr inbounds nuw %struct.Wlc_Par_t_, ptr %22, i32 0, i32 20
  %24 = load i32, ptr %23, align 8, !tbaa !101
  %25 = icmp ne i32 %24, 0
  br i1 %25, label %26, label %31

26:                                               ; preds = %21
  %27 = load ptr, ptr %3, align 8, !tbaa !74
  %28 = getelementptr inbounds nuw %struct.Wla_Man_t_, ptr %27, i32 0, i32 12
  %29 = load i32, ptr %28, align 8, !tbaa !214
  %30 = call i32 (ptr, ...) @printf(ptr noundef @.str.15, i32 noundef %29)
  br label %31

31:                                               ; preds = %26, %21
  %32 = load ptr, ptr %3, align 8, !tbaa !74
  %33 = call ptr @Wla_ManCreateAbs(ptr noundef %32)
  store ptr %33, ptr %7, align 8, !tbaa !13
  %34 = load ptr, ptr %3, align 8, !tbaa !74
  %35 = load ptr, ptr %7, align 8, !tbaa !13
  %36 = call ptr @Wla_ManBitBlast(ptr noundef %34, ptr noundef %35)
  store ptr %36, ptr %8, align 8, !tbaa !113
  %37 = load ptr, ptr %7, align 8, !tbaa !13
  call void @Wlc_NtkFree(ptr noundef %37)
  %38 = load ptr, ptr %3, align 8, !tbaa !74
  %39 = load ptr, ptr %8, align 8, !tbaa !113
  %40 = call i32 @Wla_ManSolveInt(ptr noundef %38, ptr noundef %39)
  store i32 %40, ptr %9, align 4, !tbaa !15
  %41 = load ptr, ptr %8, align 8, !tbaa !113
  call void @Aig_ManStop(ptr noundef %41)
  %42 = load i32, ptr %9, align 4, !tbaa !15
  %43 = icmp ne i32 %42, -1
  br i1 %43, label %58, label %44

44:                                               ; preds = %31
  %45 = load ptr, ptr %4, align 8, !tbaa !88
  %46 = getelementptr inbounds nuw %struct.Wlc_Par_t_, ptr %45, i32 0, i32 23
  %47 = load ptr, ptr %46, align 8, !tbaa !207
  %48 = icmp ne ptr %47, null
  br i1 %48, label %49, label %59

49:                                               ; preds = %44
  %50 = load ptr, ptr %4, align 8, !tbaa !88
  %51 = getelementptr inbounds nuw %struct.Wlc_Par_t_, ptr %50, i32 0, i32 23
  %52 = load ptr, ptr %51, align 8, !tbaa !207
  %53 = load ptr, ptr %4, align 8, !tbaa !88
  %54 = getelementptr inbounds nuw %struct.Wlc_Par_t_, ptr %53, i32 0, i32 22
  %55 = load i32, ptr %54, align 8, !tbaa !208
  %56 = call i32 %52(i32 noundef %55)
  %57 = icmp ne i32 %56, 0
  br i1 %57, label %58, label %59

58:                                               ; preds = %49, %31
  br label %66

59:                                               ; preds = %49, %44
  %60 = load ptr, ptr %3, align 8, !tbaa !74
  call void @Wla_ManRefine(ptr noundef %60)
  br label %61

61:                                               ; preds = %59
  %62 = load ptr, ptr %3, align 8, !tbaa !74
  %63 = getelementptr inbounds nuw %struct.Wla_Man_t_, ptr %62, i32 0, i32 12
  %64 = load i32, ptr %63, align 8, !tbaa !214
  %65 = add nsw i32 %64, 1
  store i32 %65, ptr %63, align 8, !tbaa !214
  br label %13, !llvm.loop !218

66:                                               ; preds = %58, %13
  %67 = load ptr, ptr %4, align 8, !tbaa !88
  %68 = getelementptr inbounds nuw %struct.Wlc_Par_t_, ptr %67, i32 0, i32 20
  %69 = load i32, ptr %68, align 8, !tbaa !101
  %70 = icmp ne i32 %69, 0
  br i1 %70, label %71, label %73

71:                                               ; preds = %66
  %72 = call i32 (ptr, ...) @printf(ptr noundef @.str.16)
  br label %73

73:                                               ; preds = %71, %66
  %74 = call i32 (ptr, ...) @printf(ptr noundef @.str.17)
  %75 = load i32, ptr %9, align 4, !tbaa !15
  %76 = icmp eq i32 %75, 0
  br i1 %76, label %77, label %79

77:                                               ; preds = %73
  %78 = call i32 (ptr, ...) @printf(ptr noundef @.str.18)
  br label %87

79:                                               ; preds = %73
  %80 = load i32, ptr %9, align 4, !tbaa !15
  %81 = icmp eq i32 %80, 1
  br i1 %81, label %82, label %84

82:                                               ; preds = %79
  %83 = call i32 (ptr, ...) @printf(ptr noundef @.str.19)
  br label %86

84:                                               ; preds = %79
  %85 = call i32 (ptr, ...) @printf(ptr noundef @.str.20)
  br label %86

86:                                               ; preds = %84, %82
  br label %87

87:                                               ; preds = %86, %77
  %88 = load ptr, ptr %3, align 8, !tbaa !74
  %89 = getelementptr inbounds nuw %struct.Wla_Man_t_, ptr %88, i32 0, i32 12
  %90 = load i32, ptr %89, align 8, !tbaa !214
  %91 = call i32 (ptr, ...) @printf(ptr noundef @.str.21, i32 noundef %90)
  %92 = call i64 @Abc_Clock()
  %93 = load i64, ptr %5, align 8, !tbaa !89
  %94 = sub nsw i64 %92, %93
  store i64 %94, ptr %6, align 8, !tbaa !89
  %95 = load i64, ptr %6, align 8, !tbaa !89
  call void @Abc_PrintTime(i32 noundef 1, ptr noundef @.str.10, i64 noundef %95)
  %96 = load ptr, ptr %4, align 8, !tbaa !88
  %97 = getelementptr inbounds nuw %struct.Wlc_Par_t_, ptr %96, i32 0, i32 20
  %98 = load i32, ptr %97, align 8, !tbaa !101
  %99 = icmp ne i32 %98, 0
  br i1 %99, label %100, label %104

100:                                              ; preds = %87
  %101 = load ptr, ptr %3, align 8, !tbaa !74
  %102 = getelementptr inbounds nuw %struct.Wla_Man_t_, ptr %101, i32 0, i32 13
  %103 = load i32, ptr %102, align 4, !tbaa !186
  call void (i32, ptr, ...) @Abc_Print(i32 noundef 1, ptr noundef @.str.22, i32 noundef %103)
  br label %104

104:                                              ; preds = %100, %87
  %105 = load ptr, ptr %4, align 8, !tbaa !88
  %106 = getelementptr inbounds nuw %struct.Wlc_Par_t_, ptr %105, i32 0, i32 20
  %107 = load i32, ptr %106, align 8, !tbaa !101
  %108 = icmp ne i32 %107, 0
  br i1 %108, label %109, label %231

109:                                              ; preds = %104
  call void (i32, ptr, ...) @Abc_Print(i32 noundef 1, ptr noundef @.str.23, ptr noundef @.str.24)
  %110 = load ptr, ptr %3, align 8, !tbaa !74
  %111 = getelementptr inbounds nuw %struct.Wla_Man_t_, ptr %110, i32 0, i32 16
  %112 = load i64, ptr %111, align 8, !tbaa !128
  %113 = sitofp i64 %112 to double
  %114 = fmul double 1.000000e+00, %113
  %115 = fdiv double %114, 1.000000e+06
  %116 = load i64, ptr %6, align 8, !tbaa !89
  %117 = sitofp i64 %116 to double
  %118 = fcmp une double %117, 0.000000e+00
  br i1 %118, label %119, label %128

119:                                              ; preds = %109
  %120 = load ptr, ptr %3, align 8, !tbaa !74
  %121 = getelementptr inbounds nuw %struct.Wla_Man_t_, ptr %120, i32 0, i32 16
  %122 = load i64, ptr %121, align 8, !tbaa !128
  %123 = sitofp i64 %122 to double
  %124 = fmul double 1.000000e+02, %123
  %125 = load i64, ptr %6, align 8, !tbaa !89
  %126 = sitofp i64 %125 to double
  %127 = fdiv double %124, %126
  br label %129

128:                                              ; preds = %109
  br label %129

129:                                              ; preds = %128, %119
  %130 = phi double [ %127, %119 ], [ 0.000000e+00, %128 ]
  call void (i32, ptr, ...) @Abc_Print(i32 noundef 1, ptr noundef @.str.25, double noundef %115, double noundef %130)
  call void (i32, ptr, ...) @Abc_Print(i32 noundef 1, ptr noundef @.str.23, ptr noundef @.str.26)
  %131 = load ptr, ptr %3, align 8, !tbaa !74
  %132 = getelementptr inbounds nuw %struct.Wla_Man_t_, ptr %131, i32 0, i32 17
  %133 = load i64, ptr %132, align 8, !tbaa !183
  %134 = sitofp i64 %133 to double
  %135 = fmul double 1.000000e+00, %134
  %136 = fdiv double %135, 1.000000e+06
  %137 = load i64, ptr %6, align 8, !tbaa !89
  %138 = sitofp i64 %137 to double
  %139 = fcmp une double %138, 0.000000e+00
  br i1 %139, label %140, label %149

140:                                              ; preds = %129
  %141 = load ptr, ptr %3, align 8, !tbaa !74
  %142 = getelementptr inbounds nuw %struct.Wla_Man_t_, ptr %141, i32 0, i32 17
  %143 = load i64, ptr %142, align 8, !tbaa !183
  %144 = sitofp i64 %143 to double
  %145 = fmul double 1.000000e+02, %144
  %146 = load i64, ptr %6, align 8, !tbaa !89
  %147 = sitofp i64 %146 to double
  %148 = fdiv double %145, %147
  br label %150

149:                                              ; preds = %129
  br label %150

150:                                              ; preds = %149, %140
  %151 = phi double [ %148, %140 ], [ 0.000000e+00, %149 ]
  call void (i32, ptr, ...) @Abc_Print(i32 noundef 1, ptr noundef @.str.25, double noundef %136, double noundef %151)
  call void (i32, ptr, ...) @Abc_Print(i32 noundef 1, ptr noundef @.str.23, ptr noundef @.str.27)
  %152 = load ptr, ptr %3, align 8, !tbaa !74
  %153 = getelementptr inbounds nuw %struct.Wla_Man_t_, ptr %152, i32 0, i32 18
  %154 = load i64, ptr %153, align 8, !tbaa !184
  %155 = sitofp i64 %154 to double
  %156 = fmul double 1.000000e+00, %155
  %157 = fdiv double %156, 1.000000e+06
  %158 = load i64, ptr %6, align 8, !tbaa !89
  %159 = sitofp i64 %158 to double
  %160 = fcmp une double %159, 0.000000e+00
  br i1 %160, label %161, label %170

161:                                              ; preds = %150
  %162 = load ptr, ptr %3, align 8, !tbaa !74
  %163 = getelementptr inbounds nuw %struct.Wla_Man_t_, ptr %162, i32 0, i32 18
  %164 = load i64, ptr %163, align 8, !tbaa !184
  %165 = sitofp i64 %164 to double
  %166 = fmul double 1.000000e+02, %165
  %167 = load i64, ptr %6, align 8, !tbaa !89
  %168 = sitofp i64 %167 to double
  %169 = fdiv double %166, %168
  br label %171

170:                                              ; preds = %150
  br label %171

171:                                              ; preds = %170, %161
  %172 = phi double [ %169, %161 ], [ 0.000000e+00, %170 ]
  call void (i32, ptr, ...) @Abc_Print(i32 noundef 1, ptr noundef @.str.25, double noundef %157, double noundef %172)
  call void (i32, ptr, ...) @Abc_Print(i32 noundef 1, ptr noundef @.str.23, ptr noundef @.str.28)
  %173 = load i64, ptr %6, align 8, !tbaa !89
  %174 = load ptr, ptr %3, align 8, !tbaa !74
  %175 = getelementptr inbounds nuw %struct.Wla_Man_t_, ptr %174, i32 0, i32 16
  %176 = load i64, ptr %175, align 8, !tbaa !128
  %177 = sub nsw i64 %173, %176
  %178 = load ptr, ptr %3, align 8, !tbaa !74
  %179 = getelementptr inbounds nuw %struct.Wla_Man_t_, ptr %178, i32 0, i32 17
  %180 = load i64, ptr %179, align 8, !tbaa !183
  %181 = sub nsw i64 %177, %180
  %182 = load ptr, ptr %3, align 8, !tbaa !74
  %183 = getelementptr inbounds nuw %struct.Wla_Man_t_, ptr %182, i32 0, i32 18
  %184 = load i64, ptr %183, align 8, !tbaa !184
  %185 = sub nsw i64 %181, %184
  %186 = sitofp i64 %185 to double
  %187 = fmul double 1.000000e+00, %186
  %188 = fdiv double %187, 1.000000e+06
  %189 = load i64, ptr %6, align 8, !tbaa !89
  %190 = sitofp i64 %189 to double
  %191 = fcmp une double %190, 0.000000e+00
  br i1 %191, label %192, label %211

192:                                              ; preds = %171
  %193 = load i64, ptr %6, align 8, !tbaa !89
  %194 = load ptr, ptr %3, align 8, !tbaa !74
  %195 = getelementptr inbounds nuw %struct.Wla_Man_t_, ptr %194, i32 0, i32 16
  %196 = load i64, ptr %195, align 8, !tbaa !128
  %197 = sub nsw i64 %193, %196
  %198 = load ptr, ptr %3, align 8, !tbaa !74
  %199 = getelementptr inbounds nuw %struct.Wla_Man_t_, ptr %198, i32 0, i32 17
  %200 = load i64, ptr %199, align 8, !tbaa !183
  %201 = sub nsw i64 %197, %200
  %202 = load ptr, ptr %3, align 8, !tbaa !74
  %203 = getelementptr inbounds nuw %struct.Wla_Man_t_, ptr %202, i32 0, i32 18
  %204 = load i64, ptr %203, align 8, !tbaa !184
  %205 = sub nsw i64 %201, %204
  %206 = sitofp i64 %205 to double
  %207 = fmul double 1.000000e+02, %206
  %208 = load i64, ptr %6, align 8, !tbaa !89
  %209 = sitofp i64 %208 to double
  %210 = fdiv double %207, %209
  br label %212

211:                                              ; preds = %171
  br label %212

212:                                              ; preds = %211, %192
  %213 = phi double [ %210, %192 ], [ 0.000000e+00, %211 ]
  call void (i32, ptr, ...) @Abc_Print(i32 noundef 1, ptr noundef @.str.25, double noundef %188, double noundef %213)
  call void (i32, ptr, ...) @Abc_Print(i32 noundef 1, ptr noundef @.str.23, ptr noundef @.str.29)
  %214 = load i64, ptr %6, align 8, !tbaa !89
  %215 = sitofp i64 %214 to double
  %216 = fmul double 1.000000e+00, %215
  %217 = fdiv double %216, 1.000000e+06
  %218 = load i64, ptr %6, align 8, !tbaa !89
  %219 = sitofp i64 %218 to double
  %220 = fcmp une double %219, 0.000000e+00
  br i1 %220, label %221, label %228

221:                                              ; preds = %212
  %222 = load i64, ptr %6, align 8, !tbaa !89
  %223 = sitofp i64 %222 to double
  %224 = fmul double 1.000000e+02, %223
  %225 = load i64, ptr %6, align 8, !tbaa !89
  %226 = sitofp i64 %225 to double
  %227 = fdiv double %224, %226
  br label %229

228:                                              ; preds = %212
  br label %229

229:                                              ; preds = %228, %221
  %230 = phi double [ %227, %221 ], [ 0.000000e+00, %228 ]
  call void (i32, ptr, ...) @Abc_Print(i32 noundef 1, ptr noundef @.str.25, double noundef %217, double noundef %230)
  br label %231

231:                                              ; preds = %229, %104
  %232 = load i32, ptr %9, align 4, !tbaa !15
  call void @llvm.lifetime.end.p0(i64 4, ptr %9) #13
  call void @llvm.lifetime.end.p0(i64 8, ptr %8) #13
  call void @llvm.lifetime.end.p0(i64 8, ptr %7) #13
  call void @llvm.lifetime.end.p0(i64 8, ptr %6) #13
  call void @llvm.lifetime.end.p0(i64 8, ptr %5) #13
  ret i32 %232
}