; Function Attrs: nounwind uwtable
define i32 @Wla_ManSolve(ptr noundef initializes((88, 92)) %0, ptr noundef readonly captures(none) %1) local_unnamed_addr #1 {
  %3 = alloca %struct.timespec, align 8
  %4 = alloca %struct.timespec, align 8
  call void @llvm.lifetime.start.p0(i64 16, ptr nonnull %4) #24
  %5 = call i32 @clock_gettime(i32 noundef 1, ptr noundef nonnull %4) #24
  %6 = icmp slt i32 %5, 0
  br i1 %6, label %Abc_Clock.exit, label %7

7:                                                ; preds = %2
  %8 = load i64, ptr %4, align 8, !tbaa !79
  %9 = mul nsw i64 %8, 1000000
  %10 = getelementptr inbounds nuw i8, ptr %4, i64 8
  %11 = load i64, ptr %10, align 8, !tbaa !81
  %12 = sdiv i64 %11, 1000
  %13 = add nsw i64 %12, %9
  br label %Abc_Clock.exit

Abc_Clock.exit:                                   ; preds = %2, %7
  %.0.i = phi i64 [ %13, %7 ], [ -1, %2 ]
  call void @llvm.lifetime.end.p0(i64 16, ptr nonnull %4) #24
  %14 = getelementptr inbounds nuw i8, ptr %0, i64 88
  %15 = getelementptr inbounds nuw i8, ptr %1, i64 88
  %16 = getelementptr inbounds nuw i8, ptr %1, i64 16
  store i32 1, ptr %14, align 8, !tbaa !220
  %17 = load i32, ptr %16, align 8, !tbaa !221
  %18 = icmp sgt i32 %17, 1
  br i1 %18, label %.lr.ph, label %._crit_edge

.lr.ph:                                           ; preds = %Abc_Clock.exit
  %19 = getelementptr inbounds nuw i8, ptr %1, i64 80
  %20 = getelementptr inbounds nuw i8, ptr %1, i64 96
  br label %21

21:                                               ; preds = %.lr.ph, %34
  %storemerge73 = phi i32 [ 1, %.lr.ph ], [ %36, %34 ]
  %22 = load i32, ptr %19, align 8, !tbaa !121
  %.not = icmp eq i32 %22, 0
  br i1 %.not, label %25, label %23

23:                                               ; preds = %21
  %24 = call i32 (ptr, ...) @printf(ptr noundef nonnull dereferenceable(1) @.str.15, i32 noundef %storemerge73)
  br label %25

25:                                               ; preds = %23, %21
  %26 = call ptr @Wla_ManCreateAbs(ptr noundef nonnull %0)
  %27 = call ptr @Wla_ManBitBlast(ptr noundef nonnull %0, ptr noundef %26)
  call void @Wlc_NtkFree(ptr noundef %26) #24
  %28 = call i32 @Wla_ManSolveInt(ptr noundef nonnull %0, ptr noundef %27)
  call void @Aig_ManStop(ptr noundef %27) #24
  %.not59 = icmp eq i32 %28, -1
  br i1 %.not59, label %29, label %._crit_edge

29:                                               ; preds = %25
  %30 = load ptr, ptr %20, align 8, !tbaa !213
  %.not60 = icmp eq ptr %30, null
  br i1 %.not60, label %34, label %31

31:                                               ; preds = %29
  %32 = load i32, ptr %15, align 8, !tbaa !214
  %33 = call i32 %30(i32 noundef %32) #24
  %.not61 = icmp eq i32 %33, 0
  br i1 %.not61, label %34, label %._crit_edge

34:                                               ; preds = %31, %29
  call void @Wla_ManRefine(ptr noundef nonnull %0)
  %35 = load i32, ptr %14, align 8, !tbaa !220
  %36 = add nsw i32 %35, 1
  store i32 %36, ptr %14, align 8, !tbaa !220
  %37 = load i32, ptr %16, align 8, !tbaa !221
  %38 = icmp slt i32 %36, %37
  br i1 %38, label %21, label %._crit_edge, !llvm.loop !222

._crit_edge:                                      ; preds = %34, %31, %25, %Abc_Clock.exit
  %.1 = phi i32 [ -1, %Abc_Clock.exit ], [ %28, %25 ], [ -1, %31 ], [ -1, %34 ]
  %39 = getelementptr inbounds nuw i8, ptr %1, i64 80
  %40 = load i32, ptr %39, align 8, !tbaa !121
  %.not62 = icmp eq i32 %40, 0
  br i1 %.not62, label %42, label %41

41:                                               ; preds = %._crit_edge
  %putchar = call i32 @putchar(i32 10)
  br label %42

42:                                               ; preds = %41, %._crit_edge
  %43 = call i32 (ptr, ...) @printf(ptr noundef nonnull dereferenceable(1) @.str.17)
  %switch.selectcmp = icmp eq i32 %.1, 1
  %switch.select = select i1 %switch.selectcmp, ptr @.str.19, ptr @.str.20
  %switch.selectcmp78 = icmp eq i32 %.1, 0
  %switch.select79 = select i1 %switch.selectcmp78, ptr @.str.18, ptr %switch.select
  %44 = call i32 (ptr, ...) @printf(ptr noundef nonnull dereferenceable(1) %switch.select79)
  %45 = load i32, ptr %14, align 8, !tbaa !220
  %46 = call i32 (ptr, ...) @printf(ptr noundef nonnull dereferenceable(1) @.str.21, i32 noundef %45)
  call void @llvm.lifetime.start.p0(i64 16, ptr nonnull %3) #24
  %47 = call i32 @clock_gettime(i32 noundef 1, ptr noundef nonnull %3) #24
  %48 = icmp slt i32 %47, 0
  br i1 %48, label %Abc_Clock.exit67, label %49

49:                                               ; preds = %42
  %50 = load i64, ptr %3, align 8, !tbaa !79
  %51 = mul nsw i64 %50, 1000000
  %52 = getelementptr inbounds nuw i8, ptr %3, i64 8
  %53 = load i64, ptr %52, align 8, !tbaa !81
  %54 = sdiv i64 %53, 1000
  %55 = add nsw i64 %54, %51
  br label %Abc_Clock.exit67

Abc_Clock.exit67:                                 ; preds = %42, %49
  %.0.i66 = phi i64 [ %55, %49 ], [ -1, %42 ]
  call void @llvm.lifetime.end.p0(i64 16, ptr nonnull %3) #24
  %56 = sub nsw i64 %.0.i66, %.0.i
  call void (i32, ptr, ...) @Abc_Print(i32 poison, ptr noundef nonnull @.str.23, ptr noundef nonnull @.str.10)
  %57 = sitofp i64 %56 to double
  %58 = fdiv double %57, 1.000000e+06
  call void (i32, ptr, ...) @Abc_Print(i32 poison, ptr noundef nonnull @.str.46, double noundef %58)
  %59 = load i32, ptr %39, align 8, !tbaa !121
  %.not63 = icmp eq i32 %59, 0
  br i1 %.not63, label %.thread, label %60

60:                                               ; preds = %Abc_Clock.exit67
  %61 = getelementptr inbounds nuw i8, ptr %0, i64 92
  %62 = load i32, ptr %61, align 4, !tbaa !198
  call void (i32, ptr, ...) @Abc_Print(i32 poison, ptr noundef nonnull @.str.22, i32 noundef %62)
  %.pr = load i32, ptr %39, align 8, !tbaa !121
  %.not64 = icmp eq i32 %.pr, 0
  br i1 %.not64, label %.thread, label %63

63:                                               ; preds = %60
  call void (i32, ptr, ...) @Abc_Print(i32 poison, ptr noundef nonnull @.str.23, ptr noundef nonnull @.str.24)
  %64 = getelementptr inbounds nuw i8, ptr %0, i64 104
  %65 = load i64, ptr %64, align 8, !tbaa !139
  %66 = sitofp i64 %65 to double
  %67 = fdiv double %66, 1.000000e+06
  %.not65 = icmp eq i64 %.0.i66, %.0.i
  %68 = fmul double %66, 1.000000e+02
  %69 = fdiv double %68, %57
  %70 = select i1 %.not65, double 0.000000e+00, double %69
  call void (i32, ptr, ...) @Abc_Print(i32 poison, ptr noundef nonnull @.str.25, double noundef %67, double noundef %70)
  call void (i32, ptr, ...) @Abc_Print(i32 poison, ptr noundef nonnull @.str.23, ptr noundef nonnull @.str.26)
  %71 = getelementptr inbounds nuw i8, ptr %0, i64 112
  %72 = load i64, ptr %71, align 8, !tbaa !182
  %73 = sitofp i64 %72 to double
  %74 = fdiv double %73, 1.000000e+06
  %75 = fmul double %73, 1.000000e+02
  %76 = fdiv double %75, %57
  %77 = select i1 %.not65, double 0.000000e+00, double %76
  call void (i32, ptr, ...) @Abc_Print(i32 poison, ptr noundef nonnull @.str.25, double noundef %74, double noundef %77)
  call void (i32, ptr, ...) @Abc_Print(i32 poison, ptr noundef nonnull @.str.23, ptr noundef nonnull @.str.27)
  %78 = getelementptr inbounds nuw i8, ptr %0, i64 120
  %79 = load i64, ptr %78, align 8, !tbaa !194
  %80 = sitofp i64 %79 to double
  %81 = fdiv double %80, 1.000000e+06
  %82 = fmul double %80, 1.000000e+02
  %83 = fdiv double %82, %57
  %84 = select i1 %.not65, double 0.000000e+00, double %83
  call void (i32, ptr, ...) @Abc_Print(i32 poison, ptr noundef nonnull @.str.25, double noundef %81, double noundef %84)
  call void (i32, ptr, ...) @Abc_Print(i32 poison, ptr noundef nonnull @.str.23, ptr noundef nonnull @.str.28)
  %85 = load i64, ptr %64, align 8, !tbaa !139
  %86 = load i64, ptr %71, align 8, !tbaa !182
  %87 = load i64, ptr %78, align 8, !tbaa !194
  %88 = add i64 %85, %86
  %89 = add i64 %88, %87
  %90 = sub i64 %56, %89
  %91 = sitofp i64 %90 to double
  %92 = fdiv double %91, 1.000000e+06
  %93 = fmul double %91, 1.000000e+02
  %94 = fdiv double %93, %57
  %95 = select i1 %.not65, double 0.000000e+00, double %94
  call void (i32, ptr, ...) @Abc_Print(i32 poison, ptr noundef nonnull @.str.25, double noundef %92, double noundef %95)
  call void (i32, ptr, ...) @Abc_Print(i32 poison, ptr noundef nonnull @.str.23, ptr noundef nonnull @.str.29)
  %96 = fmul double %57, 1.000000e+02
  %97 = fdiv double %96, %57
  %98 = select i1 %.not65, double 0.000000e+00, double %97
  call void (i32, ptr, ...) @Abc_Print(i32 poison, ptr noundef nonnull @.str.25, double noundef %58, double noundef %98)
  br label %.thread

.thread:                                          ; preds = %Abc_Clock.exit67, %63, %60
  ret i32 %.1
}